target datalayout = "e-m:e-p270:32:32-p271:32:32-p272:64:64-i64:64-i128:128-f80:128-n8:16:32:64-S128"
target triple = "x86_64-pc-linux-gnu"

@.str.29 = private unnamed_addr constant [12 x i8] c"ranges = [\0A\00", align 1
@.str.32 = private unnamed_addr constant [3 x i8] c"]\0A\00", align 1
@.str.33 = private unnamed_addr constant [72 x i8] c"# Code points `a` through `b` have value `v`, corresponding to `name`.\0A\00", align 1
@.str.34 = private unnamed_addr constant [38 x i8] c"  {a=0x%x, b=0x%x, v=%u, name=\22%s\22},\0A\00", align 1
@.str.35 = private unnamed_addr constant [27 x i8] c"  {a=0x%x, b=0x%x, v=%u},\0A\00", align 1

; Function Attrs: mustprogress uwtable
define void @usrc_writeUCPMap(ptr noundef %0, ptr noundef %1, ptr noundef %2, i32 noundef %3) #1 {
  %5 = alloca ptr, align 8
  %6 = alloca ptr, align 8
  %7 = alloca ptr, align 8
  %8 = alloca i32, align 4
  %9 = alloca i32, align 4
  %10 = alloca i32, align 4
  %11 = alloca i32, align 4
  %12 = alloca ptr, align 8
  store ptr %0, ptr %5, align 8, !tbaa !25
  store ptr %1, ptr %6, align 8, !tbaa !89
  store ptr %2, ptr %7, align 8, !tbaa !23
  store i32 %3, ptr %8, align 4, !tbaa !54
  call void @llvm.lifetime.start.p0(i64 4, ptr %9) #16
  store i32 0, ptr %9, align 4, !tbaa !14
  call void @llvm.lifetime.start.p0(i64 4, ptr %10) #16
  call void @llvm.lifetime.start.p0(i64 4, ptr %11) #16
  %13 = load ptr, ptr %5, align 8, !tbaa !25
  %14 = call i32 (ptr, ptr, ...) @fprintf(ptr noundef %13, ptr noundef @.str.33) #16
  %15 = load ptr, ptr %5, align 8, !tbaa !25
  %16 = call i32 (ptr, ptr, ...) @fprintf(ptr noundef %15, ptr noundef @.str.29) #16
  br label %17

17:                                               ; preds = %44, %4
  %18 = load ptr, ptr %6, align 8, !tbaa !89
  %19 = load i32, ptr %9, align 4, !tbaa !14
  %20 = call i32 @ucpmap_getRange_77(ptr noundef %18, i32 noundef %19, i32 noundef 0, i32 noundef 0, ptr noundef null, ptr noundef null, ptr noundef %11)
  store i32 %20, ptr %10, align 4, !tbaa !14
  %21 = icmp sge i32 %20, 0
  br i1 %21, label %22, label %47

22:                                               ; preds = %17
  %23 = load ptr, ptr %7, align 8, !tbaa !23
  %24 = icmp ne ptr %23, null
  br i1 %24, label %25, label %38

25:                                               ; preds = %22
  call void @llvm.lifetime.start.p0(i64 8, ptr %12) #16
  %26 = load ptr, ptr %7, align 8, !tbaa !23
  %27 = load i32, ptr %11, align 4, !tbaa !14
  %28 = load ptr, ptr %26, align 8, !tbaa !91
  %29 = getelementptr inbounds ptr, ptr %28, i64 2
  %30 = load ptr, ptr %29, align 8
  %31 = call noundef ptr %30(ptr noundef nonnull align 8 dereferenceable(8) %26, i32 noundef %27)
  store ptr %31, ptr %12, align 8, !tbaa !17
  %32 = load ptr, ptr %5, align 8, !tbaa !25
  %33 = load i32, ptr %9, align 4, !tbaa !14
  %34 = load i32, ptr %10, align 4, !tbaa !14
  %35 = load i32, ptr %11, align 4, !tbaa !14
  %36 = load ptr, ptr %12, align 8, !tbaa !17
  %37 = call i32 (ptr, ptr, ...) @fprintf(ptr noundef %32, ptr noundef @.str.34, i32 noundef %33, i32 noundef %34, i32 noundef %35, ptr noundef %36) #16
  call void @llvm.lifetime.end.p0(i64 8, ptr %12) #16
  br label %44

38:                                               ; preds = %22
  %39 = load ptr, ptr %5, align 8, !tbaa !25
  %40 = load i32, ptr %9, align 4, !tbaa !14
  %41 = load i32, ptr %10, align 4, !tbaa !14
  %42 = load i32, ptr %11, align 4, !tbaa !14
  %43 = call i32 (ptr, ptr, ...) @fprintf(ptr noundef %39, ptr noundef @.str.35, i32 noundef %40, i32 noundef %41, i32 noundef %42) #16
  br label %44

44:                                               ; preds = %38, %25
  %45 = load i32, ptr %10, align 4, !tbaa !14
  %46 = add nsw i32 %45, 1
  store i32 %46, ptr %9, align 4, !tbaa !14
  br label %17, !llvm.loop !93

47:                                               ; preds = %17
  %48 = load ptr, ptr %5, align 8, !tbaa !25
  %49 = call i32 (ptr, ptr, ...) @fprintf(ptr noundef %48, ptr noundef @.str.32) #16
  call void @llvm.lifetime.end.p0(i64 4, ptr %11) #16
  call void @llvm.lifetime.end.p0(i64 4, ptr %10) #16
  call void @llvm.lifetime.end.p0(i64 4, ptr %9) #16
  ret void
}