; Function Attrs: mustprogress uwtable
define void @usrc_writeUCPMap(ptr noundef captures(none) %0, ptr noundef %1, ptr noundef %2, i32 noundef %3) local_unnamed_addr #1 {
  %5 = alloca i32, align 4
  call void @llvm.lifetime.start.p0(i64 4, ptr nonnull %5) #24
  %6 = tail call i64 @fwrite(ptr nonnull @.str.33, i64 71, i64 1, ptr %0)
  %7 = tail call i64 @fwrite(ptr nonnull @.str.29, i64 11, i64 1, ptr %0)
  %8 = call i32 @ucpmap_getRange_77(ptr noundef %1, i32 noundef 0, i32 noundef 0, i32 noundef 0, ptr noundef null, ptr noundef null, ptr noundef nonnull %5)
  %9 = icmp sgt i32 %8, -1
  br i1 %9, label %.lr.ph, label %._crit_edge

.lr.ph:                                           ; preds = %4
  %.not = icmp eq ptr %2, null
  br i1 %.not, label %.lr.ph.split.us, label %.lr.ph.split

.lr.ph.split.us:                                  ; preds = %.lr.ph, %.lr.ph.split.us
  %10 = phi i32 [ %14, %.lr.ph.split.us ], [ %8, %.lr.ph ]
  %.016.us = phi i32 [ %13, %.lr.ph.split.us ], [ 0, %.lr.ph ]
  %11 = load i32, ptr %5, align 4, !tbaa !12
  %12 = call i32 (ptr, ptr, ...) @fprintf(ptr noundef %0, ptr noundef nonnull @.str.35, i32 noundef %.016.us, i32 noundef %10, i32 noundef %11) #24
  %13 = add nuw nsw i32 %10, 1
  %14 = call i32 @ucpmap_getRange_77(ptr noundef %1, i32 noundef %13, i32 noundef 0, i32 noundef 0, ptr noundef null, ptr noundef null, ptr noundef nonnull %5)
  %15 = icmp sgt i32 %14, -1
  br i1 %15, label %.lr.ph.split.us, label %._crit_edge, !llvm.loop !66

.lr.ph.split:                                     ; preds = %.lr.ph, %.lr.ph.split
  %16 = phi i32 [ %25, %.lr.ph.split ], [ %8, %.lr.ph ]
  %.016 = phi i32 [ %24, %.lr.ph.split ], [ 0, %.lr.ph ]
  %17 = load i32, ptr %5, align 4, !tbaa !12
  %18 = load ptr, ptr %2, align 8, !tbaa !58
  %19 = getelementptr inbounds nuw i8, ptr %18, i64 16
  %20 = load ptr, ptr %19, align 8
  %21 = call noundef ptr %20(ptr noundef nonnull align 8 dereferenceable(8) %2, i32 noundef %17)
  %22 = load i32, ptr %5, align 4, !tbaa !12
  %23 = call i32 (ptr, ptr, ...) @fprintf(ptr noundef %0, ptr noundef nonnull @.str.34, i32 noundef %.016, i32 noundef %16, i32 noundef %22, ptr noundef %21) #24
  %24 = add nuw nsw i32 %16, 1
  %25 = call i32 @ucpmap_getRange_77(ptr noundef %1, i32 noundef %24, i32 noundef 0, i32 noundef 0, ptr noundef null, ptr noundef null, ptr noundef nonnull %5)
  %26 = icmp sgt i32 %25, -1
  br i1 %26, label %.lr.ph.split, label %._crit_edge, !llvm.loop !66

._crit_edge:                                      ; preds = %.lr.ph.split, %.lr.ph.split.us, %4
  %27 = call i64 @fwrite(ptr nonnull @.str.32, i64 2, i64 1, ptr %0)
  call void @llvm.lifetime.end.p0(i64 4, ptr nonnull %5) #24
  ret void
}